target datalayout = "e-m:e-p270:32:32-p271:32:32-p272:64:64-i64:64-i128:128-f80:128-n8:16:32:64-S128"
target triple = "x86_64-pc-linux-gnu"

%struct.parms_atomic = type { i32, i32, i32 }

; Function Attrs: nounwind uwtable
define internal void @H5Z__scaleoffset_next_byte(ptr noundef %0, ptr noundef %1) #0 {
  %3 = alloca ptr, align 8
  %4 = alloca ptr, align 8
  store ptr %0, ptr %3, align 8
  store ptr %1, ptr %4, align 8
  %5 = load ptr, ptr %3, align 8
  %6 = load i64, ptr %5, align 8
  %7 = add i64 %6, 1
  store i64 %7, ptr %5, align 8
  %8 = load ptr, ptr %4, align 8
  store i32 8, ptr %8, align 4
  ret void
}

; Function Attrs: nounwind uwtable
define internal void @H5Z__scaleoffset_decompress_one_byte(ptr noundef %0, i64 noundef %1, i32 noundef %2, i32 noundef %3, ptr noundef %4, ptr noundef %5, ptr noundef %6, ptr noundef byval(%struct.parms_atomic) align 8 %7, i32 noundef %8) #0 {
  %10 = alloca ptr, align 8
  %11 = alloca i64, align 8
  %12 = alloca i32, align 4
  %13 = alloca i32, align 4
  %14 = alloca ptr, align 8
  %15 = alloca ptr, align 8
  %16 = alloca ptr, align 8
  %17 = alloca i32, align 4
  %18 = alloca i32, align 4
  %19 = alloca i8, align 1
  store ptr %0, ptr %10, align 8
  store i64 %1, ptr %11, align 8
  store i32 %2, ptr %12, align 4
  store i32 %3, ptr %13, align 4
  store ptr %4, ptr %14, align 8
  store ptr %5, ptr %15, align 8
  store ptr %6, ptr %16, align 8
  store i32 %8, ptr %17, align 4
  %20 = load ptr, ptr %14, align 8
  %21 = load ptr, ptr %15, align 8
  %22 = load i64, ptr %21, align 8
  %23 = getelementptr inbounds i8, ptr %20, i64 %22
  %24 = load i8, ptr %23, align 1
  store i8 %24, ptr %19, align 1
  %25 = load i32, ptr %12, align 4
  %26 = load i32, ptr %13, align 4
  %27 = icmp eq i32 %25, %26
  br i1 %27, label %28, label %35

28:                                               ; preds = %9
  %29 = load i32, ptr %17, align 4
  %30 = getelementptr inbounds %struct.parms_atomic, ptr %7, i32 0, i32 1
  %31 = load i32, ptr %30, align 4
  %32 = sub i32 %29, %31
  %33 = urem i32 %32, 8
  %34 = sub i32 8, %33
  store i32 %34, ptr %18, align 4
  br label %36

35:                                               ; preds = %9
  store i32 8, ptr %18, align 4
  br label %36

36:                                               ; preds = %35, %28
  %37 = load ptr, ptr %16, align 8
  %38 = load i32, ptr %37, align 4
  %39 = load i32, ptr %18, align 4
  %40 = icmp ugt i32 %38, %39
  br i1 %40, label %41, label %64

41:                                               ; preds = %36
  %42 = load i8, ptr %19, align 1
  %43 = zext i8 %42 to i32
  %44 = load ptr, ptr %16, align 8
  %45 = load i32, ptr %44, align 4
  %46 = load i32, ptr %18, align 4
  %47 = sub i32 %45, %46
  %48 = ashr i32 %43, %47
  %49 = load i32, ptr %18, align 4
  %50 = shl i32 -1, %49
  %51 = xor i32 %50, -1
  %52 = and i32 %48, %51
  %53 = trunc i32 %52 to i8
  %54 = load ptr, ptr %10, align 8
  %55 = load i64, ptr %11, align 8
  %56 = load i32, ptr %12, align 4
  %57 = zext i32 %56 to i64
  %58 = add i64 %55, %57
  %59 = getelementptr inbounds i8, ptr %54, i64 %58
  store i8 %53, ptr %59, align 1
  %60 = load i32, ptr %18, align 4
  %61 = load ptr, ptr %16, align 8
  %62 = load i32, ptr %61, align 4
  %63 = sub i32 %62, %60
  store i32 %63, ptr %61, align 4
  br label %126

64:                                               ; preds = %36
  %65 = load i8, ptr %19, align 1
  %66 = zext i8 %65 to i32
  %67 = load ptr, ptr %16, align 8
  %68 = load i32, ptr %67, align 4
  %69 = shl i32 -1, %68
  %70 = xor i32 %69, -1
  %71 = and i32 %66, %70
  %72 = load i32, ptr %18, align 4
  %73 = load ptr, ptr %16, align 8
  %74 = load i32, ptr %73, align 4
  %75 = sub i32 %72, %74
  %76 = shl i32 %71, %75
  %77 = trunc i32 %76 to i8
  %78 = load ptr, ptr %10, align 8
  %79 = load i64, ptr %11, align 8
  %80 = load i32, ptr %12, align 4
  %81 = zext i32 %80 to i64
  %82 = add i64 %79, %81
  %83 = getelementptr inbounds i8, ptr %78, i64 %82
  store i8 %77, ptr %83, align 1
  %84 = load ptr, ptr %16, align 8
  %85 = load i32, ptr %84, align 4
  %86 = load i32, ptr %18, align 4
  %87 = sub i32 %86, %85
  store i32 %87, ptr %18, align 4
  %88 = load ptr, ptr %15, align 8
  %89 = load ptr, ptr %16, align 8
  call void @H5Z__scaleoffset_next_byte(ptr noundef %88, ptr noundef %89)
  %90 = load i32, ptr %18, align 4
  %91 = icmp eq i32 %90, 0
  br i1 %91, label %92, label %93

92:                                               ; preds = %64
  br label %126

93:                                               ; preds = %64
  %94 = load ptr, ptr %14, align 8
  %95 = load ptr, ptr %15, align 8
  %96 = load i64, ptr %95, align 8
  %97 = getelementptr inbounds i8, ptr %94, i64 %96
  %98 = load i8, ptr %97, align 1
  store i8 %98, ptr %19, align 1
  %99 = load i8, ptr %19, align 1
  %100 = zext i8 %99 to i32
  %101 = load ptr, ptr %16, align 8
  %102 = load i32, ptr %101, align 4
  %103 = load i32, ptr %18, align 4
  %104 = sub i32 %102, %103
  %105 = ashr i32 %100, %104
  %106 = load i32, ptr %18, align 4
  %107 = shl i32 -1, %106
  %108 = xor i32 %107, -1
  %109 = and i32 %105, %108
  %110 = trunc i32 %109 to i8
  %111 = zext i8 %110 to i32
  %112 = load ptr, ptr %10, align 8
  %113 = load i64, ptr %11, align 8
  %114 = load i32, ptr %12, align 4
  %115 = zext i32 %114 to i64
  %116 = add i64 %113, %115
  %117 = getelementptr inbounds i8, ptr %112, i64 %116
  %118 = load i8, ptr %117, align 1
  %119 = zext i8 %118 to i32
  %120 = or i32 %119, %111
  %121 = trunc i32 %120 to i8
  store i8 %121, ptr %117, align 1
  %122 = load i32, ptr %18, align 4
  %123 = load ptr, ptr %16, align 8
  %124 = load i32, ptr %123, align 4
  %125 = sub i32 %124, %122
  store i32 %125, ptr %123, align 4
  br label %126

126:                                              ; preds = %93, %92, %41
  ret void
}

; Function Attrs: nounwind uwtable
define internal void @H5Z__scaleoffset_decompress_one_atomic(ptr noundef %0, i64 noundef %1, ptr noundef %2, ptr noundef %3, ptr noundef %4, ptr noundef byval(%struct.parms_atomic) align 8 %5) #0 {
  %7 = alloca ptr, align 8
  %8 = alloca i64, align 8
  %9 = alloca ptr, align 8
  %10 = alloca ptr, align 8
  %11 = alloca ptr, align 8
  %12 = alloca i32, align 4
  %13 = alloca i32, align 4
  %14 = alloca i32, align 4
  store ptr %0, ptr %7, align 8
  store i64 %1, ptr %8, align 8
  store ptr %2, ptr %9, align 8
  store ptr %3, ptr %10, align 8
  store ptr %4, ptr %11, align 8
  %15 = getelementptr inbounds %struct.parms_atomic, ptr %5, i32 0, i32 0
  %16 = load i32, ptr %15, align 8
  %17 = mul i32 %16, 8
  store i32 %17, ptr %13, align 4
  %18 = getelementptr inbounds %struct.parms_atomic, ptr %5, i32 0, i32 2
  %19 = load i32, ptr %18, align 8
  %20 = icmp eq i32 %19, 0
  br i1 %20, label %21, label %48

21:                                               ; preds = %6
  %22 = getelementptr inbounds %struct.parms_atomic, ptr %5, i32 0, i32 0
  %23 = load i32, ptr %22, align 8
  %24 = sub i32 %23, 1
  %25 = load i32, ptr %13, align 4
  %26 = getelementptr inbounds %struct.parms_atomic, ptr %5, i32 0, i32 1
  %27 = load i32, ptr %26, align 4
  %28 = sub i32 %25, %27
  %29 = udiv i32 %28, 8
  %30 = sub i32 %24, %29
  store i32 %30, ptr %12, align 4
  %31 = load i32, ptr %12, align 4
  store i32 %31, ptr %14, align 4
  br label %32

32:                                               ; preds = %44, %21
  %33 = load i32, ptr %14, align 4
  %34 = icmp sge i32 %33, 0
  br i1 %34, label %35, label %47

35:                                               ; preds = %32
  %36 = load ptr, ptr %7, align 8
  %37 = load i64, ptr %8, align 8
  %38 = load i32, ptr %14, align 4
  %39 = load i32, ptr %12, align 4
  %40 = load ptr, ptr %9, align 8
  %41 = load ptr, ptr %10, align 8
  %42 = load ptr, ptr %11, align 8
  %43 = load i32, ptr %13, align 4
  call void @H5Z__scaleoffset_decompress_one_byte(ptr noundef %36, i64 noundef %37, i32 noundef %38, i32 noundef %39, ptr noundef %40, ptr noundef %41, ptr noundef %42, ptr noundef byval(%struct.parms_atomic) align 8 %5, i32 noundef %43)
  br label %44

44:                                               ; preds = %35
  %45 = load i32, ptr %14, align 4
  %46 = add nsw i32 %45, -1
  store i32 %46, ptr %14, align 4
  br label %32

47:                                               ; preds = %32
  br label %74

48:                                               ; preds = %6
  %49 = load i32, ptr %13, align 4
  %50 = getelementptr inbounds %struct.parms_atomic, ptr %5, i32 0, i32 1
  %51 = load i32, ptr %50, align 4
  %52 = sub i32 %49, %51
  %53 = udiv i32 %52, 8
  store i32 %53, ptr %12, align 4
  %54 = load i32, ptr %12, align 4
  store i32 %54, ptr %14, align 4
  br label %55

55:                                               ; preds = %70, %48
  %56 = load i32, ptr %14, align 4
  %57 = getelementptr inbounds %struct.parms_atomic, ptr %5, i32 0, i32 0
  %58 = load i32, ptr %57, align 8
  %59 = sub i32 %58, 1
  %60 = icmp sle i32 %56, %59
  br i1 %60, label %61, label %73

61:                                               ; preds = %55
  %62 = load ptr, ptr %7, align 8
  %63 = load i64, ptr %8, align 8
  %64 = load i32, ptr %14, align 4
  %65 = load i32, ptr %12, align 4
  %66 = load ptr, ptr %9, align 8
  %67 = load ptr, ptr %10, align 8
  %68 = load ptr, ptr %11, align 8
  %69 = load i32, ptr %13, align 4
  call void @H5Z__scaleoffset_decompress_one_byte(ptr noundef %62, i64 noundef %63, i32 noundef %64, i32 noundef %65, ptr noundef %66, ptr noundef %67, ptr noundef %68, ptr noundef byval(%struct.parms_atomic) align 8 %5, i32 noundef %69)
  br label %70

70:                                               ; preds = %61
  %71 = load i32, ptr %14, align 4
  %72 = add nsw i32 %71, 1
  store i32 %72, ptr %14, align 4
  br label %55

73:                                               ; preds = %55
  br label %74

74:                                               ; preds = %73, %47
  ret void
}

; Function Attrs: nounwind uwtable
define internal void @H5Z__scaleoffset_decompress(ptr noundef %0, i32 noundef %1, ptr noundef %2, i64 %3, i32 %4) #0 {
  %6 = alloca %struct.parms_atomic, align 8
  %7 = alloca { i64, i32 }, align 4
  %8 = alloca ptr, align 8
  %9 = alloca i32, align 4
  %10 = alloca ptr, align 8
  %11 = alloca i64, align 8
  %12 = alloca i64, align 8
  %13 = alloca i32, align 4
  %14 = getelementptr inbounds { i64, i32 }, ptr %7, i32 0, i32 0
  store i64 %3, ptr %14, align 4
  %15 = getelementptr inbounds { i64, i32 }, ptr %7, i32 0, i32 1
  store i32 %4, ptr %15, align 4
  call void @llvm.memcpy.p0.p0.i64(ptr align 4 %6, ptr align 4 %7, i64 12, i1 false)
  store ptr %0, ptr %8, align 8
  store i32 %1, ptr %9, align 4
  store ptr %2, ptr %10, align 8
  store i64 0, ptr %11, align 8
  br label %16

16:                                               ; preds = %29, %5
  %17 = load i64, ptr %11, align 8
  %18 = load i32, ptr %9, align 4
  %19 = zext i32 %18 to i64
  %20 = getelementptr inbounds %struct.parms_atomic, ptr %6, i32 0, i32 0
  %21 = load i32, ptr %20, align 4
  %22 = zext i32 %21 to i64
  %23 = mul i64 %19, %22
  %24 = icmp ult i64 %17, %23
  br i1 %24, label %25, label %32

25:                                               ; preds = %16
  %26 = load ptr, ptr %8, align 8
  %27 = load i64, ptr %11, align 8
  %28 = getelementptr inbounds i8, ptr %26, i64 %27
  store i8 0, ptr %28, align 1
  br label %29

29:                                               ; preds = %25
  %30 = load i64, ptr %11, align 8
  %31 = add i64 %30, 1
  store i64 %31, ptr %11, align 8
  br label %16

32:                                               ; preds = %16
  store i64 0, ptr %12, align 8
  store i32 8, ptr %13, align 4
  store i64 0, ptr %11, align 8
  br label %33

33:                                               ; preds = %46, %32
  %34 = load i64, ptr %11, align 8
  %35 = load i32, ptr %9, align 4
  %36 = zext i32 %35 to i64
  %37 = icmp ult i64 %34, %36
  br i1 %37, label %38, label %49

38:                                               ; preds = %33
  %39 = load ptr, ptr %8, align 8
  %40 = load i64, ptr %11, align 8
  %41 = getelementptr inbounds %struct.parms_atomic, ptr %6, i32 0, i32 0
  %42 = load i32, ptr %41, align 4
  %43 = zext i32 %42 to i64
  %44 = mul i64 %40, %43
  %45 = load ptr, ptr %10, align 8
  call void @H5Z__scaleoffset_decompress_one_atomic(ptr noundef %39, i64 noundef %44, ptr noundef %45, ptr noundef %12, ptr noundef %13, ptr noundef byval(%struct.parms_atomic) align 8 %6)
  br label %46

46:                                               ; preds = %38
  %47 = load i64, ptr %11, align 8
  %48 = add i64 %47, 1
  store i64 %48, ptr %11, align 8
  br label %33

49:                                               ; preds = %33
  ret void
}