; Function Attrs: nofree norecurse nosync nounwind memory(argmem: readwrite) uwtable
define internal fastcc void @H5Z__scaleoffset_decompress(ptr nocapture noundef writeonly %0, i32 noundef %1, ptr nocapture noundef readonly %2, i64 %3, i32 %4) unnamed_addr #5 {
  %6 = zext i32 %1 to i64
  %7 = and i64 %3, 4294967295
  %8 = mul nuw i64 %7, %6
  %.not = icmp eq i64 %8, 0
  br i1 %.not, label %.preheader, label %.lr.ph.preheader

.lr.ph.preheader:                                 ; preds = %5
  tail call void @llvm.memset.p0.i64(ptr align 1 %0, i8 0, i64 %8, i1 false)
  br label %.preheader

.preheader:                                       ; preds = %.lr.ph.preheader, %5
  %.not46 = icmp eq i32 %1, 0
  br i1 %.not46, label %._crit_edge, label %.lr.ph39

.lr.ph39:                                         ; preds = %.preheader
  %.sroa.0.0.extract.trunc = trunc i64 %3 to i32
  %9 = shl i32 %.sroa.0.0.extract.trunc, 3
  %10 = icmp eq i32 %4, 0
  %.sroa.0.4.extract.shift = lshr i64 %3, 32
  %.sroa.0.4.extract.trunc = trunc nuw i64 %.sroa.0.4.extract.shift to i32
  %11 = sub i32 %9, %.sroa.0.4.extract.trunc
  %12 = lshr i32 %11, 3
  %13 = and i32 %11, 7
  %14 = sub nuw nsw i32 8, %13
  %15 = zext nneg i32 %12 to i64
  %16 = xor i32 %12, -1
  %17 = add i32 %16, %.sroa.0.0.extract.trunc
  %18 = zext nneg i32 %17 to i64
  br i1 %10, label %.lr.ph39.split.us, label %.lr.ph39.split

.lr.ph39.split.us:                                ; preds = %.lr.ph39
  %19 = icmp sgt i32 %17, -1
  br i1 %19, label %.lr.ph35.i.us.us, label %._crit_edge

.lr.ph35.i.us.us:                                 ; preds = %.lr.ph39.split.us, %H5Z__scaleoffset_decompress_one_atomic.exit.loopexit.us.us
  %.138.us.us = phi i64 [ %54, %H5Z__scaleoffset_decompress_one_atomic.exit.loopexit.us.us ], [ 0, %.lr.ph39.split.us ]
  %.02237.us.us = phi i32 [ %.3.us.us, %H5Z__scaleoffset_decompress_one_atomic.exit.loopexit.us.us ], [ 8, %.lr.ph39.split.us ]
  %.02436.us.us = phi i64 [ %.327.us.us, %H5Z__scaleoffset_decompress_one_atomic.exit.loopexit.us.us ], [ 0, %.lr.ph39.split.us ]
  %20 = mul nuw i64 %.138.us.us, %7
  %invariant.gep32.i.us.us = getelementptr i8, ptr %0, i64 %20
  br label %21

21:                                               ; preds = %H5Z__scaleoffset_decompress_one_byte.exit.i.us.us, %.lr.ph35.i.us.us
  %.125.us.us = phi i64 [ %.02436.us.us, %.lr.ph35.i.us.us ], [ %.327.us.us, %H5Z__scaleoffset_decompress_one_byte.exit.i.us.us ]
  %.123.us.us = phi i32 [ %.02237.us.us, %.lr.ph35.i.us.us ], [ %.3.us.us, %H5Z__scaleoffset_decompress_one_byte.exit.i.us.us ]
  %indvars.iv37.i.us.us = phi i64 [ %18, %.lr.ph35.i.us.us ], [ %indvars.iv.next38.i.us.us, %H5Z__scaleoffset_decompress_one_byte.exit.i.us.us ]
  %22 = getelementptr inbounds i8, ptr %2, i64 %.125.us.us
  %23 = load i8, ptr %22, align 1
  %24 = icmp eq i64 %indvars.iv37.i.us.us, %18
  %.0.i.i.us.us = select i1 %24, i32 %14, i32 8
  %25 = icmp ugt i32 %.123.us.us, %.0.i.i.us.us
  %26 = zext i8 %23 to i32
  %gep33.i.us.us = getelementptr i8, ptr %invariant.gep32.i.us.us, i64 %indvars.iv37.i.us.us
  br i1 %25, label %46, label %27

27:                                               ; preds = %21
  %28 = shl nsw i32 -1, %.123.us.us
  %29 = xor i32 %28, -1
  %30 = and i32 %26, %29
  %31 = sub i32 %.0.i.i.us.us, %.123.us.us
  %32 = shl nuw nsw i32 %30, %31
  %33 = trunc i32 %32 to i8
  store i8 %33, ptr %gep33.i.us.us, align 1
  %34 = add i64 %.125.us.us, 1
  %35 = icmp eq i32 %.0.i.i.us.us, %.123.us.us
  br i1 %35, label %H5Z__scaleoffset_decompress_one_byte.exit.i.us.us, label %36

36:                                               ; preds = %27
  %37 = getelementptr inbounds i8, ptr %2, i64 %34
  %38 = load i8, ptr %37, align 1
  %39 = zext i8 %38 to i32
  %40 = sub i32 8, %31
  %41 = lshr i32 %39, %40
  %42 = shl nsw i32 -1, %31
  %43 = xor i32 %42, -1
  %44 = and i32 %41, %43
  %45 = or i32 %44, %32
  br label %.sink.split.i.i.us.us

46:                                               ; preds = %21
  %47 = sub i32 %.123.us.us, %.0.i.i.us.us
  %48 = lshr i32 %26, %47
  %49 = shl nsw i32 -1, %.0.i.i.us.us
  %50 = xor i32 %49, -1
  %51 = and i32 %48, %50
  br label %.sink.split.i.i.us.us

.sink.split.i.i.us.us:                            ; preds = %46, %36
  %.pre-phi = phi i32 [ %47, %46 ], [ %40, %36 ]
  %.226.us.us = phi i64 [ %.125.us.us, %46 ], [ %34, %36 ]
  %.sink.i.i.in.us.us = phi i32 [ %51, %46 ], [ %45, %36 ]
  %.sink.i.i.us.us = trunc i32 %.sink.i.i.in.us.us to i8
  store i8 %.sink.i.i.us.us, ptr %gep33.i.us.us, align 1
  br label %H5Z__scaleoffset_decompress_one_byte.exit.i.us.us

H5Z__scaleoffset_decompress_one_byte.exit.i.us.us: ; preds = %.sink.split.i.i.us.us, %27
  %.327.us.us = phi i64 [ %.226.us.us, %.sink.split.i.i.us.us ], [ %34, %27 ]
  %.3.us.us = phi i32 [ %.pre-phi, %.sink.split.i.i.us.us ], [ 8, %27 ]
  %indvars.iv.next38.i.us.us = add nsw i64 %indvars.iv37.i.us.us, -1
  %52 = trunc nuw i64 %indvars.iv37.i.us.us to i32
  %53 = icmp sgt i32 %52, 0
  br i1 %53, label %21, label %H5Z__scaleoffset_decompress_one_atomic.exit.loopexit.us.us

H5Z__scaleoffset_decompress_one_atomic.exit.loopexit.us.us: ; preds = %H5Z__scaleoffset_decompress_one_byte.exit.i.us.us
  %54 = add nuw nsw i64 %.138.us.us, 1
  %exitcond50.not = icmp eq i64 %54, %6
  br i1 %exitcond50.not, label %._crit_edge, label %.lr.ph35.i.us.us

.lr.ph39.split:                                   ; preds = %.lr.ph39
  %55 = add i32 %.sroa.0.0.extract.trunc, -1
  %.not30.i = icmp sgt i32 %12, %55
  br i1 %.not30.i, label %._crit_edge, label %.lr.ph.i

.lr.ph.i:                                         ; preds = %.lr.ph39.split, %H5Z__scaleoffset_decompress_one_atomic.exit.loopexit32
  %.138 = phi i64 [ %88, %H5Z__scaleoffset_decompress_one_atomic.exit.loopexit32 ], [ 0, %.lr.ph39.split ]
  %.02237 = phi i32 [ %.6, %H5Z__scaleoffset_decompress_one_atomic.exit.loopexit32 ], [ 8, %.lr.ph39.split ]
  %.02436 = phi i64 [ %.630, %H5Z__scaleoffset_decompress_one_atomic.exit.loopexit32 ], [ 0, %.lr.ph39.split ]
  %56 = mul nuw i64 %.138, %7
  %invariant.gep.i = getelementptr i8, ptr %0, i64 %56
  br label %57

57:                                               ; preds = %H5Z__scaleoffset_decompress_one_byte.exit28.i, %.lr.ph.i
  %.428 = phi i64 [ %.02436, %.lr.ph.i ], [ %.630, %H5Z__scaleoffset_decompress_one_byte.exit28.i ]
  %.4 = phi i32 [ %.02237, %.lr.ph.i ], [ %.6, %H5Z__scaleoffset_decompress_one_byte.exit28.i ]
  %indvars.iv.i = phi i64 [ %15, %.lr.ph.i ], [ %indvars.iv.next.i, %H5Z__scaleoffset_decompress_one_byte.exit28.i ]
  %58 = getelementptr inbounds i8, ptr %2, i64 %.428
  %59 = load i8, ptr %58, align 1
  %60 = icmp eq i64 %indvars.iv.i, %15
  %.0.i24.i = select i1 %60, i32 %14, i32 8
  %61 = icmp ugt i32 %.4, %.0.i24.i
  %62 = zext i8 %59 to i32
  %gep.i = getelementptr i8, ptr %invariant.gep.i, i64 %indvars.iv.i
  br i1 %61, label %63, label %69

63:                                               ; preds = %57
  %64 = sub i32 %.4, %.0.i24.i
  %65 = lshr i32 %62, %64
  %66 = shl nsw i32 -1, %.0.i24.i
  %67 = xor i32 %66, -1
  %68 = and i32 %65, %67
  br label %.sink.split.i25.i

69:                                               ; preds = %57
  %70 = shl nsw i32 -1, %.4
  %71 = xor i32 %70, -1
  %72 = and i32 %62, %71
  %73 = sub i32 %.0.i24.i, %.4
  %74 = shl nuw nsw i32 %72, %73
  %75 = trunc i32 %74 to i8
  store i8 %75, ptr %gep.i, align 1
  %76 = add i64 %.428, 1
  %77 = icmp eq i32 %.0.i24.i, %.4
  br i1 %77, label %H5Z__scaleoffset_decompress_one_byte.exit28.i, label %78

78:                                               ; preds = %69
  %79 = getelementptr inbounds i8, ptr %2, i64 %76
  %80 = load i8, ptr %79, align 1
  %81 = zext i8 %80 to i32
  %82 = sub i32 8, %73
  %83 = lshr i32 %81, %82
  %84 = shl nsw i32 -1, %73
  %85 = xor i32 %84, -1
  %86 = and i32 %83, %85
  %87 = or i32 %86, %74
  br label %.sink.split.i25.i

.sink.split.i25.i:                                ; preds = %78, %63
  %.pre-phi51 = phi i32 [ %82, %78 ], [ %64, %63 ]
  %.529 = phi i64 [ %76, %78 ], [ %.428, %63 ]
  %.sink.i26.i.in = phi i32 [ %87, %78 ], [ %68, %63 ]
  %.sink.i26.i = trunc i32 %.sink.i26.i.in to i8
  store i8 %.sink.i26.i, ptr %gep.i, align 1
  br label %H5Z__scaleoffset_decompress_one_byte.exit28.i

H5Z__scaleoffset_decompress_one_byte.exit28.i:    ; preds = %.sink.split.i25.i, %69
  %.630 = phi i64 [ %.529, %.sink.split.i25.i ], [ %76, %69 ]
  %.6 = phi i32 [ %.pre-phi51, %.sink.split.i25.i ], [ 8, %69 ]
  %indvars.iv.next.i = add nuw nsw i64 %indvars.iv.i, 1
  %exitcond.not.i = icmp eq i64 %indvars.iv.next.i, %7
  br i1 %exitcond.not.i, label %H5Z__scaleoffset_decompress_one_atomic.exit.loopexit32, label %57

H5Z__scaleoffset_decompress_one_atomic.exit.loopexit32: ; preds = %H5Z__scaleoffset_decompress_one_byte.exit28.i
  %88 = add nuw nsw i64 %.138, 1
  %exitcond.not = icmp eq i64 %88, %6
  br i1 %exitcond.not, label %._crit_edge, label %.lr.ph.i

._crit_edge:                                      ; preds = %H5Z__scaleoffset_decompress_one_atomic.exit.loopexit32, %H5Z__scaleoffset_decompress_one_atomic.exit.loopexit.us.us, %.lr.ph39.split, %.lr.ph39.split.us, %.preheader
  ret void
}